target datalayout = "e-m:e-p270:32:32-p271:32:32-p272:64:64-i64:64-i128:128-f80:128-n8:16:32:64-S128"
target triple = "x86_64-pc-linux-gnu"

@.str.2 = private unnamed_addr constant [38 x i8] c"vwr: Invalid message record length %d\00", align 1

; Function Attrs: inlinehint nounwind null_pointer_is_valid sspstrong uwtable
define internal i32 @pntoh32(ptr noundef %0) #7 {
  %2 = alloca ptr, align 8
  store ptr %0, ptr %2, align 8
  %3 = load ptr, ptr %2, align 8
  %4 = getelementptr i8, ptr %3, i64 0
  %5 = load i8, ptr %4, align 1
  %6 = zext i8 %5 to i32
  %7 = shl i32 %6, 24
  %8 = load ptr, ptr %2, align 8
  %9 = getelementptr i8, ptr %8, i64 1
  %10 = load i8, ptr %9, align 1
  %11 = zext i8 %10 to i32
  %12 = shl i32 %11, 16
  %13 = or i32 %7, %12
  %14 = load ptr, ptr %2, align 8
  %15 = getelementptr i8, ptr %14, i64 2
  %16 = load i8, ptr %15, align 1
  %17 = zext i8 %16 to i32
  %18 = shl i32 %17, 8
  %19 = or i32 %13, %18
  %20 = load ptr, ptr %2, align 8
  %21 = getelementptr i8, ptr %20, i64 3
  %22 = load i8, ptr %21, align 1
  %23 = zext i8 %22 to i32
  %24 = shl i32 %23, 0
  %25 = or i32 %19, %24
  ret i32 %25
}

; Function Attrs: null_pointer_is_valid sspstrong uwtable
define internal i32 @decode_msg(ptr noundef %0, ptr noundef %1, ptr noundef %2, ptr noundef %3, ptr noundef %4) #0 {
  %6 = alloca ptr, align 8
  %7 = alloca ptr, align 8
  %8 = alloca ptr, align 8
  %9 = alloca ptr, align 8
  %10 = alloca ptr, align 8
  %11 = alloca i8, align 1
  %12 = alloca i8, align 1
  %13 = alloca i32, align 4
  %14 = alloca i32, align 4
  %15 = alloca i32, align 4
  store ptr %0, ptr %6, align 8
  store ptr %1, ptr %7, align 8
  store ptr %2, ptr %8, align 8
  store ptr %3, ptr %9, align 8
  store ptr %4, ptr %10, align 8
  call void @llvm.lifetime.start.p0(i64 1, ptr %11) #13
  call void @llvm.lifetime.start.p0(i64 1, ptr %12) #13
  call void @llvm.lifetime.start.p0(i64 4, ptr %13) #13
  call void @llvm.lifetime.start.p0(i64 4, ptr %14) #13
  call void @llvm.lifetime.start.p0(i64 4, ptr %15) #13
  %16 = load ptr, ptr %7, align 8
  %17 = getelementptr i8, ptr %16, i64 0
  %18 = load i8, ptr %17, align 1
  store i8 %18, ptr %11, align 1
  %19 = load ptr, ptr %7, align 8
  %20 = getelementptr i8, ptr %19, i64 1
  %21 = load i8, ptr %20, align 1
  store i8 %21, ptr %12, align 1
  %22 = load i8, ptr %12, align 1
  %23 = zext i8 %22 to i32
  %24 = and i32 %23, 48
  %25 = ashr i32 %24, 4
  %26 = trunc i32 %25 to i8
  store i8 %26, ptr %12, align 1
  %27 = load ptr, ptr %7, align 8
  %28 = getelementptr i8, ptr %27, i64 8
  %29 = call i32 @pntoh32(ptr noundef %28)
  store i32 %29, ptr %13, align 4
  %30 = load ptr, ptr %7, align 8
  %31 = getelementptr i8, ptr %30, i64 12
  %32 = call i32 @pntoh32(ptr noundef %31)
  store i32 %32, ptr %14, align 4
  %33 = load ptr, ptr %6, align 8
  %34 = icmp ne ptr %33, null
  br i1 %34, label %35, label %39

35:                                               ; preds = %5
  %36 = load i8, ptr %12, align 1
  %37 = zext i8 %36 to i32
  %38 = load ptr, ptr %10, align 8
  store i32 %37, ptr %38, align 4
  br label %39

39:                                               ; preds = %35, %5
  %40 = load i8, ptr %11, align 1
  %41 = zext i8 %40 to i32
  switch i32 %41, label %96 [
    i32 33, label %42
    i32 49, label %51
    i32 56, label %60
    i32 57, label %69
    i32 193, label %78
    i32 139, label %78
    i32 187, label %78
    i32 254, label %87
  ]

42:                                               ; preds = %39
  %43 = load ptr, ptr %6, align 8
  %44 = icmp ne ptr %43, null
  br i1 %44, label %45, label %47

45:                                               ; preds = %42
  %46 = load ptr, ptr %9, align 8
  store i32 0, ptr %46, align 4
  br label %47

47:                                               ; preds = %45, %42
  %48 = load i32, ptr %13, align 4
  %49 = and i32 %48, 65535
  store i32 %49, ptr %15, align 4
  %50 = load ptr, ptr %8, align 8
  store i32 0, ptr %50, align 4
  br label %103

51:                                               ; preds = %39
  %52 = load ptr, ptr %6, align 8
  %53 = icmp ne ptr %52, null
  br i1 %53, label %54, label %56

54:                                               ; preds = %51
  %55 = load ptr, ptr %9, align 8
  store i32 1, ptr %55, align 4
  br label %56

56:                                               ; preds = %54, %51
  %57 = load i32, ptr %13, align 4
  %58 = and i32 %57, 65535
  store i32 %58, ptr %15, align 4
  %59 = load ptr, ptr %8, align 8
  store i32 0, ptr %59, align 4
  br label %103

60:                                               ; preds = %39
  %61 = load ptr, ptr %6, align 8
  %62 = icmp ne ptr %61, null
  br i1 %62, label %63, label %65

63:                                               ; preds = %60
  %64 = load ptr, ptr %9, align 8
  store i32 3, ptr %64, align 4
  br label %65

65:                                               ; preds = %63, %60
  %66 = load i32, ptr %13, align 4
  %67 = and i32 %66, 65535
  store i32 %67, ptr %15, align 4
  %68 = load ptr, ptr %8, align 8
  store i32 0, ptr %68, align 4
  br label %103

69:                                               ; preds = %39
  %70 = load ptr, ptr %6, align 8
  %71 = icmp ne ptr %70, null
  br i1 %71, label %72, label %74

72:                                               ; preds = %69
  %73 = load ptr, ptr %9, align 8
  store i32 4, ptr %73, align 4
  br label %74

74:                                               ; preds = %72, %69
  %75 = load i32, ptr %13, align 4
  %76 = and i32 %75, 65535
  store i32 %76, ptr %15, align 4
  %77 = load ptr, ptr %8, align 8
  store i32 0, ptr %77, align 4
  br label %103

78:                                               ; preds = %39, %39, %39
  %79 = load ptr, ptr %6, align 8
  %80 = icmp ne ptr %79, null
  br i1 %80, label %81, label %83

81:                                               ; preds = %78
  %82 = load ptr, ptr %9, align 8
  store i32 2, ptr %82, align 4
  br label %83

83:                                               ; preds = %81, %78
  %84 = load i32, ptr %13, align 4
  %85 = and i32 %84, 65535
  store i32 %85, ptr %15, align 4
  %86 = load ptr, ptr %8, align 8
  store i32 1, ptr %86, align 4
  br label %103

87:                                               ; preds = %39
  %88 = load ptr, ptr %6, align 8
  %89 = icmp ne ptr %88, null
  br i1 %89, label %90, label %92

90:                                               ; preds = %87
  %91 = load ptr, ptr %9, align 8
  store i32 2, ptr %91, align 4
  br label %92

92:                                               ; preds = %90, %87
  %93 = load i32, ptr %14, align 4
  %94 = and i32 %93, 65535
  store i32 %94, ptr %15, align 4
  %95 = load ptr, ptr %8, align 8
  store i32 1, ptr %95, align 4
  br label %103

96:                                               ; preds = %39
  %97 = load ptr, ptr %6, align 8
  %98 = icmp ne ptr %97, null
  br i1 %98, label %99, label %101

99:                                               ; preds = %96
  %100 = load ptr, ptr %9, align 8
  store i32 2, ptr %100, align 4
  br label %101

101:                                              ; preds = %99, %96
  store i32 0, ptr %15, align 4
  %102 = load ptr, ptr %8, align 8
  store i32 -1, ptr %102, align 4
  br label %103

103:                                              ; preds = %101, %92, %83, %74, %65, %56, %47
  %104 = load i32, ptr %15, align 4
  call void @llvm.lifetime.end.p0(i64 4, ptr %15) #13
  call void @llvm.lifetime.end.p0(i64 4, ptr %14) #13
  call void @llvm.lifetime.end.p0(i64 4, ptr %13) #13
  call void @llvm.lifetime.end.p0(i64 1, ptr %12) #13
  call void @llvm.lifetime.end.p0(i64 1, ptr %11) #13
  ret i32 %104
}

; Function Attrs: null_pointer_is_valid sspstrong uwtable
define internal zeroext i1 @vwr_read_rec_header(ptr noundef %0, ptr noundef %1, ptr noundef %2, ptr noundef %3, ptr noundef %4, ptr noundef %5, ptr noundef %6) #0 {
  %8 = alloca i1, align 1
  %9 = alloca ptr, align 8
  %10 = alloca ptr, align 8
  %11 = alloca ptr, align 8
  %12 = alloca ptr, align 8
  %13 = alloca ptr, align 8
  %14 = alloca ptr, align 8
  %15 = alloca ptr, align 8
  %16 = alloca i32, align 4
  %17 = alloca i32, align 4
  %18 = alloca [16 x i8], align 16
  %19 = alloca i32, align 4
  store ptr %0, ptr %9, align 8
  store ptr %1, ptr %10, align 8
  store ptr %2, ptr %11, align 8
  store ptr %3, ptr %12, align 8
  store ptr %4, ptr %13, align 8
  store ptr %5, ptr %14, align 8
  store ptr %6, ptr %15, align 8
  call void @llvm.lifetime.start.p0(i64 4, ptr %16) #13
  call void @llvm.lifetime.start.p0(i64 4, ptr %17) #13
  call void @llvm.lifetime.start.p0(i64 16, ptr %18) #13
  %20 = load ptr, ptr %11, align 8
  store i32 0, ptr %20, align 4
  br label %21

21:                                               ; preds = %60, %7
  br label %22

22:                                               ; preds = %21
  %23 = load ptr, ptr %10, align 8
  %24 = getelementptr inbounds [16 x i8], ptr %18, i64 0, i64 0
  %25 = load ptr, ptr %14, align 8
  %26 = load ptr, ptr %15, align 8
  %27 = call zeroext i1 @wtap_read_bytes_or_eof(ptr noundef %23, ptr noundef %24, i32 noundef 16, ptr noundef %25, ptr noundef %26)
  br i1 %27, label %29, label %28

28:                                               ; preds = %22
  store i1 false, ptr %8, align 1
  store i32 1, ptr %19, align 4
  br label %61

29:                                               ; preds = %22
  %30 = load ptr, ptr %9, align 8
  %31 = getelementptr inbounds [16 x i8], ptr %18, i64 0, i64 0
  %32 = load ptr, ptr %12, align 8
  %33 = load ptr, ptr %13, align 8
  %34 = call i32 @decode_msg(ptr noundef %30, ptr noundef %31, ptr noundef %17, ptr noundef %32, ptr noundef %33)
  store i32 %34, ptr %16, align 4
  %35 = icmp ne i32 %34, 0
  br i1 %35, label %36, label %60

36:                                               ; preds = %29
  %37 = load i32, ptr %16, align 4
  %38 = icmp sgt i32 %37, 32768
  br i1 %38, label %39, label %44

39:                                               ; preds = %36
  %40 = load ptr, ptr %14, align 8
  store i32 -13, ptr %40, align 4
  %41 = load i32, ptr %16, align 4
  %42 = call noalias ptr (ptr, ptr, ...) @wmem_strdup_printf(ptr noundef null, ptr noundef @.str.2, i32 noundef %41)
  %43 = load ptr, ptr %15, align 8
  store ptr %42, ptr %43, align 8
  store i1 false, ptr %8, align 1
  store i32 1, ptr %19, align 4
  br label %61

44:                                               ; preds = %36
  %45 = load i32, ptr %17, align 4
  %46 = icmp ne i32 %45, 0
  br i1 %46, label %47, label %55

47:                                               ; preds = %44
  %48 = load ptr, ptr %10, align 8
  %49 = load i32, ptr %16, align 4
  %50 = load ptr, ptr %14, align 8
  %51 = load ptr, ptr %15, align 8
  %52 = call zeroext i1 @wtap_read_bytes(ptr noundef %48, ptr noundef null, i32 noundef %49, ptr noundef %50, ptr noundef %51)
  br i1 %52, label %54, label %53

53:                                               ; preds = %47
  store i1 false, ptr %8, align 1
  store i32 1, ptr %19, align 4
  br label %61

54:                                               ; preds = %47
  br label %58

55:                                               ; preds = %44
  %56 = load i32, ptr %16, align 4
  %57 = load ptr, ptr %11, align 8
  store i32 %56, ptr %57, align 4
  store i1 true, ptr %8, align 1
  store i32 1, ptr %19, align 4
  br label %61

58:                                               ; preds = %54
  br label %59

59:                                               ; preds = %58
  br label %60

60:                                               ; preds = %59, %29
  br label %21

61:                                               ; preds = %55, %53, %39, %28
  call void @llvm.lifetime.end.p0(i64 16, ptr %18) #13
  call void @llvm.lifetime.end.p0(i64 4, ptr %17) #13
  call void @llvm.lifetime.end.p0(i64 4, ptr %16) #13
  %62 = load i1, ptr %8, align 1
  ret i1 %62
}