; Function Attrs: null_pointer_is_valid sspstrong uwtable
define internal fastcc noundef zeroext i1 @vwr_read_rec_header(ptr noundef readnone captures(address_is_null) %0, ptr noundef %1, ptr noundef writeonly captures(none) initializes((0, 4)) %2, ptr noundef writeonly captures(none) %3, ptr noundef writeonly captures(none) %4, ptr noundef %5, ptr noundef %6) unnamed_addr #0 {
  %8 = alloca [16 x i8], align 16
  call void @llvm.lifetime.start.p0(i64 16, ptr nonnull %8) #8
  store i32 0, ptr %2, align 4
  %9 = call zeroext i1 @wtap_read_bytes_or_eof(ptr noundef %1, ptr noundef nonnull %8, i32 noundef 16, ptr noundef %5, ptr noundef %6)
  br i1 %9, label %.lr.ph, label %.loopexit

.lr.ph:                                           ; preds = %7
  %10 = getelementptr inbounds nuw i8, ptr %8, i64 10
  %11 = getelementptr inbounds nuw i8, ptr %8, i64 11
  %12 = getelementptr inbounds nuw i8, ptr %8, i64 14
  %13 = getelementptr inbounds nuw i8, ptr %8, i64 15
  %.not.i = icmp eq ptr %0, null
  %14 = getelementptr inbounds nuw i8, ptr %8, i64 1
  br i1 %.not.i, label %.lr.ph.split.us, label %.lr.ph.split

.lr.ph.split.us:                                  ; preds = %.lr.ph, %decode_msg.exit.thread.us
  %15 = load i8, ptr %8, align 16
  %16 = load i8, ptr %10, align 2
  %17 = zext i8 %16 to i32
  %18 = shl nuw nsw i32 %17, 8
  %19 = load i8, ptr %11, align 1
  %20 = zext i8 %19 to i32
  %21 = or disjoint i32 %18, %20
  %22 = load i8, ptr %12, align 2
  %23 = zext i8 %22 to i32
  %24 = shl nuw nsw i32 %23, 8
  %25 = load i8, ptr %13, align 1
  %26 = zext i8 %25 to i32
  %27 = or disjoint i32 %24, %26
  switch i8 %15, label %decode_msg.exit.thread.us [
    i8 33, label %29
    i8 49, label %29
    i8 56, label %29
    i8 57, label %29
    i8 -63, label %28
    i8 -117, label %28
    i8 -69, label %28
    i8 -2, label %decode_msg.exit.us
  ]

28:                                               ; preds = %.lr.ph.split.us, %.lr.ph.split.us, %.lr.ph.split.us
  br label %decode_msg.exit.us

29:                                               ; preds = %.lr.ph.split.us, %.lr.ph.split.us, %.lr.ph.split.us, %.lr.ph.split.us
  br label %decode_msg.exit.us

decode_msg.exit.us:                               ; preds = %.lr.ph.split.us, %29, %28
  %.sink.i.us = phi i1 [ true, %29 ], [ false, %28 ], [ false, %.lr.ph.split.us ]
  %.0.i.us = phi i32 [ %21, %29 ], [ %21, %28 ], [ %27, %.lr.ph.split.us ]
  %.not.us = icmp eq i32 %.0.i.us, 0
  br i1 %.not.us, label %decode_msg.exit.thread.us, label %30

30:                                               ; preds = %decode_msg.exit.us
  %31 = icmp samesign ugt i32 %.0.i.us, 32768
  br i1 %31, label %.split.us, label %32

32:                                               ; preds = %30
  br i1 %.sink.i.us, label %.split25.us, label %33

33:                                               ; preds = %32
  %34 = call zeroext i1 @wtap_read_bytes(ptr noundef %1, ptr noundef null, i32 noundef %.0.i.us, ptr noundef %5, ptr noundef %6)
  br i1 %34, label %decode_msg.exit.thread.us, label %.loopexit

decode_msg.exit.thread.us:                        ; preds = %.lr.ph.split.us, %33, %decode_msg.exit.us
  %35 = call zeroext i1 @wtap_read_bytes_or_eof(ptr noundef %1, ptr noundef nonnull %8, i32 noundef 16, ptr noundef %5, ptr noundef %6)
  br i1 %35, label %.lr.ph.split.us, label %.loopexit

.lr.ph.split:                                     ; preds = %.lr.ph, %decode_msg.exit.thread
  %36 = load i8, ptr %8, align 16
  %37 = load i8, ptr %10, align 2
  %38 = zext i8 %37 to i32
  %39 = shl nuw nsw i32 %38, 8
  %40 = load i8, ptr %11, align 1
  %41 = zext i8 %40 to i32
  %42 = or disjoint i32 %39, %41
  %43 = load i8, ptr %12, align 2
  %44 = load i8, ptr %13, align 1
  %45 = load i8, ptr %14, align 1
  %46 = lshr i8 %45, 4
  %47 = and i8 %46, 3
  %48 = zext nneg i8 %47 to i32
  store i32 %48, ptr %4, align 4
  switch i8 %36, label %.sink.split.i.thread [
    i8 33, label %.sink.split.i
    i8 49, label %49
    i8 56, label %50
    i8 57, label %51
    i8 -63, label %52
    i8 -117, label %52
    i8 -69, label %52
    i8 -2, label %53
  ]

49:                                               ; preds = %.lr.ph.split
  br label %.sink.split.i

50:                                               ; preds = %.lr.ph.split
  br label %.sink.split.i

51:                                               ; preds = %.lr.ph.split
  br label %.sink.split.i

52:                                               ; preds = %.lr.ph.split, %.lr.ph.split, %.lr.ph.split
  br label %.sink.split.i

53:                                               ; preds = %.lr.ph.split
  %54 = zext i8 %43 to i32
  %55 = shl nuw nsw i32 %54, 8
  %56 = zext i8 %44 to i32
  %57 = or disjoint i32 %55, %56
  br label %.sink.split.i

.sink.split.i.thread:                             ; preds = %.lr.ph.split
  store i32 2, ptr %3, align 4
  br label %decode_msg.exit.thread

.sink.split.i:                                    ; preds = %.lr.ph.split, %49, %50, %51, %52, %53
  %.sink36.i = phi i32 [ 1, %49 ], [ 3, %50 ], [ 4, %51 ], [ 2, %52 ], [ 2, %53 ], [ 0, %.lr.ph.split ]
  %58 = phi i1 [ true, %49 ], [ true, %50 ], [ true, %51 ], [ false, %52 ], [ false, %53 ], [ true, %.lr.ph.split ]
  %.0.ph.i = phi i32 [ %42, %49 ], [ %42, %50 ], [ %42, %51 ], [ %42, %52 ], [ %57, %53 ], [ %42, %.lr.ph.split ]
  store i32 %.sink36.i, ptr %3, align 4
  %.not = icmp eq i32 %.0.ph.i, 0
  br i1 %.not, label %decode_msg.exit.thread, label %59

59:                                               ; preds = %.sink.split.i
  %60 = icmp samesign ugt i32 %.0.ph.i, 32768
  br i1 %60, label %.split.us, label %62

.split.us:                                        ; preds = %59, %30
  %.us-phi = phi i32 [ %.0.i.us, %30 ], [ %.0.ph.i, %59 ]
  store i32 -13, ptr %5, align 4
  %61 = call noalias ptr (ptr, ptr, ...) @wmem_strdup_printf(ptr noundef null, ptr noundef nonnull @.str.2, i32 noundef %.us-phi)
  store ptr %61, ptr %6, align 8
  br label %.loopexit

62:                                               ; preds = %59
  br i1 %58, label %.split25.us, label %63

63:                                               ; preds = %62
  %64 = call zeroext i1 @wtap_read_bytes(ptr noundef %1, ptr noundef null, i32 noundef %.0.ph.i, ptr noundef %5, ptr noundef %6)
  br i1 %64, label %decode_msg.exit.thread, label %.loopexit

.split25.us:                                      ; preds = %62, %32
  %.us-phi26 = phi i32 [ %.0.i.us, %32 ], [ %.0.ph.i, %62 ]
  store i32 %.us-phi26, ptr %2, align 4
  br label %.loopexit

decode_msg.exit.thread:                           ; preds = %.sink.split.i.thread, %63, %.sink.split.i
  %65 = call zeroext i1 @wtap_read_bytes_or_eof(ptr noundef %1, ptr noundef nonnull %8, i32 noundef 16, ptr noundef %5, ptr noundef %6)
  br i1 %65, label %.lr.ph.split, label %.loopexit

.loopexit:                                        ; preds = %decode_msg.exit.thread, %63, %decode_msg.exit.thread.us, %33, %7, %.split25.us, %.split.us
  %.0 = phi i1 [ false, %.split.us ], [ true, %.split25.us ], [ false, %7 ], [ false, %33 ], [ false, %decode_msg.exit.thread.us ], [ false, %63 ], [ false, %decode_msg.exit.thread ]
  call void @llvm.lifetime.end.p0(i64 16, ptr nonnull %8) #8
  ret i1 %.0
}